; Function Attrs: mustprogress uwtable
define internal noundef zeroext i1 @_ZN7rocksdb12_GLOBAL__N_121LegacyBloomBitsReader8MayMatchERKNS_5SliceE(ptr nocapture noundef nonnull readonly align 8 dereferenceable(28) %this, ptr nocapture noundef nonnull readonly align 8 dereferenceable(16) %key) unnamed_addr #3 align 2 {
entry:
  %0 = load ptr, ptr %key, align 8
  %size_.i.i = getelementptr inbounds i8, ptr %key, i64 8
  %1 = load i64, ptr %size_.i.i, align 8
  %call2.i = tail call noundef i32 @_ZN7rocksdb4HashEPKcmj(ptr noundef %0, i64 noundef %1, i32 noundef -1130422988)
  %num_lines_ = getelementptr inbounds i8, ptr %this, i64 20
  %2 = load i32, ptr %num_lines_, align 4
  %data_ = getelementptr inbounds i8, ptr %this, i64 8
  %3 = load ptr, ptr %data_, align 8
  %log2_cache_line_size_ = getelementptr inbounds i8, ptr %this, i64 24
  %4 = load i32, ptr %log2_cache_line_size_, align 8
  %rem.i.i = urem i32 %call2.i, %2
  %shl.i = shl i32 %rem.i.i, %4
  %idx.ext.i = zext i32 %shl.i to i64
  %add.ptr.i = getelementptr inbounds i8, ptr %3, i64 %idx.ext.i
  tail call void @llvm.prefetch.p0(ptr %add.ptr.i, i32 0, i32 1, i32 1)
  %notmask.i = shl nsw i32 -1, %4
  %sub.i = xor i32 %notmask.i, -1
  %idx.ext4.i = zext nneg i32 %sub.i to i64
  %add.ptr5.i = getelementptr inbounds i8, ptr %add.ptr.i, i64 %idx.ext4.i
  tail call void @llvm.prefetch.p0(ptr %add.ptr5.i, i32 0, i32 1, i32 1)
  %num_probes_ = getelementptr inbounds i8, ptr %this, i64 16
  %5 = load i32, ptr %num_probes_, align 8
  %add.i = add nsw i32 %4, 3
  %or.i = tail call i32 @llvm.fshl.i32(i32 %call2.i, i32 %call2.i, i32 15)
  %notmask.i2 = shl nsw i32 -1, %add.i
  %sub.i3 = xor i32 %notmask.i2, -1
  %cmp7.i = icmp slt i32 %5, 1
  br i1 %cmp7.i, label %_ZN7rocksdb23LegacyLocalityBloomImplILb0EE20HashMayMatchPreparedEjiPKci.exit, label %for.body.i.preheader

for.body.i.preheader:                             ; preds = %entry
  %and.i4 = and i32 %call2.i, %sub.i3
  %div6.i5 = lshr i32 %and.i4, 3
  %idxprom.i6 = zext nneg i32 %div6.i5 to i64
  %arrayidx.i7 = getelementptr inbounds i8, ptr %add.ptr.i, i64 %idxprom.i6
  %6 = load i8, ptr %arrayidx.i7, align 1
  %conv12.i8 = zext i8 %6 to i32
  %rem.i9 = and i32 %and.i4, 7
  %shl2.i10 = shl nuw nsw i32 1, %rem.i9
  %and3.i11 = and i32 %shl2.i10, %conv12.i8
  %cmp4.i12 = icmp eq i32 %and3.i11, 0
  br i1 %cmp4.i12, label %_ZN7rocksdb23LegacyLocalityBloomImplILb0EE20HashMayMatchPreparedEjiPKci.exit, label %if.end.i

for.body.i:                                       ; preds = %if.end.i
  %add5.i = add i32 %h.addr.08.i14, %or.i
  %and.i = and i32 %add5.i, %sub.i3
  %div6.i = lshr i32 %and.i, 3
  %idxprom.i = zext nneg i32 %div6.i to i64
  %arrayidx.i = getelementptr inbounds i8, ptr %add.ptr.i, i64 %idxprom.i
  %7 = load i8, ptr %arrayidx.i, align 1
  %conv12.i = zext i8 %7 to i32
  %rem.i = and i32 %and.i, 7
  %shl2.i = shl nuw nsw i32 1, %rem.i
  %and3.i = and i32 %shl2.i, %conv12.i
  %cmp4.i = icmp eq i32 %and3.i, 0
  br i1 %cmp4.i, label %_ZN7rocksdb23LegacyLocalityBloomImplILb0EE20HashMayMatchPreparedEjiPKci.exit.loopexit, label %if.end.i, !llvm.loop !148

if.end.i:                                         ; preds = %for.body.i.preheader, %for.body.i
  %h.addr.08.i14 = phi i32 [ %add5.i, %for.body.i ], [ %call2.i, %for.body.i.preheader ]
  %i.09.i13 = phi i32 [ %inc.i, %for.body.i ], [ 0, %for.body.i.preheader ]
  %inc.i = add nuw nsw i32 %i.09.i13, 1
  %exitcond.i = icmp eq i32 %inc.i, %5
  br i1 %exitcond.i, label %_ZN7rocksdb23LegacyLocalityBloomImplILb0EE20HashMayMatchPreparedEjiPKci.exit.loopexit, label %for.body.i, !llvm.loop !148

_ZN7rocksdb23LegacyLocalityBloomImplILb0EE20HashMayMatchPreparedEjiPKci.exit.loopexit: ; preds = %for.body.i, %if.end.i
  %cmp.i.le = icmp sge i32 %inc.i, %5
  br label %_ZN7rocksdb23LegacyLocalityBloomImplILb0EE20HashMayMatchPreparedEjiPKci.exit

_ZN7rocksdb23LegacyLocalityBloomImplILb0EE20HashMayMatchPreparedEjiPKci.exit: ; preds = %_ZN7rocksdb23LegacyLocalityBloomImplILb0EE20HashMayMatchPreparedEjiPKci.exit.loopexit, %for.body.i.preheader, %entry
  %cmp.lcssa.i = phi i1 [ true, %entry ], [ false, %for.body.i.preheader ], [ %cmp.i.le, %_ZN7rocksdb23LegacyLocalityBloomImplILb0EE20HashMayMatchPreparedEjiPKci.exit.loopexit ]
  ret i1 %cmp.lcssa.i
}